target datalayout = "e-m:e-p270:32:32-p271:32:32-p272:64:64-i64:64-i128:128-f80:128-n8:16:32:64-S128"
target triple = "x86_64-pc-linux-gnu"

%"class.boost::archive::class_id_optional_type" = type { %"class.boost::archive::class_id_type" }
%"class.boost::archive::class_id_type" = type { i16 }
%"class.boost::archive::version_type" = type { i32 }
%"class.boost::archive::detail::basic_iarchive_impl::cobject_id" = type <{ ptr, ptr, %"class.boost::archive::version_type", %"struct.boost::archive::tracking_type", i8, [2 x i8] }>
%"struct.boost::archive::tracking_type" = type { i8 }
%"class.boost::archive::detail::basic_iarchive_impl" = type { %"class.boost::serialization::library_version_type", i32, %"class.std::vector", %"struct.boost::archive::detail::basic_iarchive_impl::moveable_objects", %"class.std::set", %"class.std::vector.3", %"struct.boost::archive::detail::basic_iarchive_impl::pending" }
%"class.boost::serialization::library_version_type" = type { i16 }
%"class.std::vector" = type { %"struct.std::_Vector_base" }
%"struct.std::_Vector_base" = type { %"struct.std::_Vector_base<boost::archive::detail::basic_iarchive_impl::aobject, std::allocator<boost::archive::detail::basic_iarchive_impl::aobject>>::_Vector_impl" }
%"struct.std::_Vector_base<boost::archive::detail::basic_iarchive_impl::aobject, std::allocator<boost::archive::detail::basic_iarchive_impl::aobject>>::_Vector_impl" = type { %"struct.std::_Vector_base<boost::archive::detail::basic_iarchive_impl::aobject, std::allocator<boost::archive::detail::basic_iarchive_impl::aobject>>::_Vector_impl_data" }
%"struct.std::_Vector_base<boost::archive::detail::basic_iarchive_impl::aobject, std::allocator<boost::archive::detail::basic_iarchive_impl::aobject>>::_Vector_impl_data" = type { ptr, ptr, ptr }
%"struct.boost::archive::detail::basic_iarchive_impl::moveable_objects" = type <{ %"class.boost::archive::object_id_type", %"class.boost::archive::object_id_type", %"class.boost::archive::object_id_type", i8, [3 x i8] }>
%"class.boost::archive::object_id_type" = type { i32 }
%"class.std::set" = type { %"class.std::_Rb_tree" }
%"class.std::_Rb_tree" = type { %"struct.std::_Rb_tree<boost::archive::detail::basic_iarchive_impl::cobject_type, boost::archive::detail::basic_iarchive_impl::cobject_type, std::_Identity<boost::archive::detail::basic_iarchive_impl::cobject_type>, std::less<boost::archive::detail::basic_iarchive_impl::cobject_type>>::_Rb_tree_impl" }
%"struct.std::_Rb_tree<boost::archive::detail::basic_iarchive_impl::cobject_type, boost::archive::detail::basic_iarchive_impl::cobject_type, std::_Identity<boost::archive::detail::basic_iarchive_impl::cobject_type>, std::less<boost::archive::detail::basic_iarchive_impl::cobject_type>>::_Rb_tree_impl" = type { [8 x i8], %"struct.std::_Rb_tree_header" }
%"struct.std::_Rb_tree_header" = type { %"struct.std::_Rb_tree_node_base", i64 }
%"struct.std::_Rb_tree_node_base" = type { i32, ptr, ptr, ptr }
%"class.std::vector.3" = type { %"struct.std::_Vector_base.4" }
%"struct.std::_Vector_base.4" = type { %"struct.std::_Vector_base<boost::archive::detail::basic_iarchive_impl::cobject_id, std::allocator<boost::archive::detail::basic_iarchive_impl::cobject_id>>::_Vector_impl" }
%"struct.std::_Vector_base<boost::archive::detail::basic_iarchive_impl::cobject_id, std::allocator<boost::archive::detail::basic_iarchive_impl::cobject_id>>::_Vector_impl" = type { %"struct.std::_Vector_base<boost::archive::detail::basic_iarchive_impl::cobject_id, std::allocator<boost::archive::detail::basic_iarchive_impl::cobject_id>>::_Vector_impl_data" }
%"struct.std::_Vector_base<boost::archive::detail::basic_iarchive_impl::cobject_id, std::allocator<boost::archive::detail::basic_iarchive_impl::cobject_id>>::_Vector_impl_data" = type { ptr, ptr, ptr }
%"struct.boost::archive::detail::basic_iarchive_impl::pending" = type <{ ptr, ptr, %"class.boost::archive::version_type", [4 x i8] }>

; Function Attrs: mustprogress nounwind uwtable
define linkonce_odr hidden void @_ZN5boost7archive13class_id_typeC2ERKS1_(ptr noundef nonnull align 2 dereferenceable(2) %0, ptr noundef nonnull align 2 dereferenceable(2) %1) unnamed_addr #2 comdat align 2 {
  %3 = alloca ptr, align 8
  %4 = alloca ptr, align 8
  store ptr %0, ptr %3, align 8, !tbaa !3
  store ptr %1, ptr %4, align 8, !tbaa !3
  %5 = load ptr, ptr %3, align 8
  %6 = getelementptr inbounds nuw %"class.boost::archive::class_id_type", ptr %5, i32 0, i32 0
  %7 = load ptr, ptr %4, align 8, !tbaa !3
  %8 = getelementptr inbounds nuw %"class.boost::archive::class_id_type", ptr %7, i32 0, i32 0
  %9 = load i16, ptr %8, align 2, !tbaa !43
  store i16 %9, ptr %6, align 2, !tbaa !43
  ret void
}

; Function Attrs: mustprogress nounwind uwtable
define linkonce_odr hidden noundef nonnull align 4 dereferenceable(4) ptr @_ZN5boost7archive12version_typeaSERKS1_(ptr noundef nonnull align 4 dereferenceable(4) %0, ptr noundef nonnull align 4 dereferenceable(4) %1) #2 comdat align 2 {
  %3 = alloca ptr, align 8
  %4 = alloca ptr, align 8
  store ptr %0, ptr %3, align 8, !tbaa !3
  store ptr %1, ptr %4, align 8, !tbaa !3
  %5 = load ptr, ptr %3, align 8
  %6 = load ptr, ptr %4, align 8, !tbaa !3
  %7 = getelementptr inbounds nuw %"class.boost::archive::version_type", ptr %6, i32 0, i32 0
  %8 = load i32, ptr %7, align 4, !tbaa !47
  %9 = getelementptr inbounds nuw %"class.boost::archive::version_type", ptr %5, i32 0, i32 0
  store i32 %8, ptr %9, align 4, !tbaa !47
  ret ptr %5
}

; Function Attrs: mustprogress nounwind uwtable
define linkonce_odr hidden noundef nonnull align 1 dereferenceable(1) ptr @_ZN5boost7archive13tracking_typeaSEb(ptr noundef nonnull align 1 dereferenceable(1) %0, i1 noundef zeroext %1) #2 comdat align 2 {
  %3 = alloca ptr, align 8
  %4 = alloca i8, align 1
  store ptr %0, ptr %3, align 8, !tbaa !3
  %5 = zext i1 %1 to i8
  store i8 %5, ptr %4, align 1, !tbaa !45
  %6 = load ptr, ptr %3, align 8
  %7 = load i8, ptr %4, align 1, !tbaa !45, !range !13, !noundef !14
  %8 = trunc i8 %7 to i1
  %9 = getelementptr inbounds nuw %"struct.boost::archive::tracking_type", ptr %6, i32 0, i32 0
  %10 = zext i1 %8 to i8
  store i8 %10, ptr %9, align 1, !tbaa !46
  ret ptr %6
}

; Function Attrs: mustprogress uwtable
define linkonce_odr hidden void @_ZN5boost7archive6detail19basic_iarchive_impl4loadINS0_12version_typeEEEvRNS1_14basic_iarchiveERT_(ptr noundef nonnull align 8 dereferenceable(144) %0, ptr noundef nonnull align 8 dereferenceable(40) %1, ptr noundef nonnull align 4 dereferenceable(4) %2) #0 comdat align 2 {
  %4 = alloca ptr, align 8
  %5 = alloca ptr, align 8
  %6 = alloca ptr, align 8
  store ptr %0, ptr %4, align 8, !tbaa !3
  store ptr %1, ptr %5, align 8, !tbaa !3
  store ptr %2, ptr %6, align 8, !tbaa !3
  %7 = load ptr, ptr %5, align 8, !tbaa !3
  %8 = load ptr, ptr %6, align 8, !tbaa !3
  %9 = load ptr, ptr %7, align 8, !tbaa !16
  %10 = getelementptr inbounds ptr, ptr %9, i64 0
  %11 = load ptr, ptr %10, align 8
  call void %11(ptr noundef nonnull align 8 dereferenceable(40) %7, ptr noundef nonnull align 4 dereferenceable(4) %8)
  ret void
}

; Function Attrs: mustprogress uwtable
define linkonce_odr hidden void @_ZN5boost7archive6detail19basic_iarchive_impl4loadINS0_13tracking_typeEEEvRNS1_14basic_iarchiveERT_(ptr noundef nonnull align 8 dereferenceable(144) %0, ptr noundef nonnull align 8 dereferenceable(40) %1, ptr noundef nonnull align 1 dereferenceable(1) %2) #0 comdat align 2 {
  %4 = alloca ptr, align 8
  %5 = alloca ptr, align 8
  %6 = alloca ptr, align 8
  store ptr %0, ptr %4, align 8, !tbaa !3
  store ptr %1, ptr %5, align 8, !tbaa !3
  store ptr %2, ptr %6, align 8, !tbaa !3
  %7 = load ptr, ptr %5, align 8, !tbaa !3
  %8 = load ptr, ptr %6, align 8, !tbaa !3
  %9 = load ptr, ptr %7, align 8, !tbaa !16
  %10 = getelementptr inbounds ptr, ptr %9, i64 5
  %11 = load ptr, ptr %10, align 8
  call void %11(ptr noundef nonnull align 8 dereferenceable(40) %7, ptr noundef nonnull align 1 dereferenceable(1) %8)
  ret void
}

; Function Attrs: mustprogress uwtable
define linkonce_odr hidden void @_ZN5boost7archive6detail19basic_iarchive_impl4loadINS0_22class_id_optional_typeEEEvRNS1_14basic_iarchiveERT_(ptr noundef nonnull align 8 dereferenceable(144) %0, ptr noundef nonnull align 8 dereferenceable(40) %1, ptr noundef nonnull align 2 dereferenceable(2) %2) #0 comdat align 2 {
  %4 = alloca ptr, align 8
  %5 = alloca ptr, align 8
  %6 = alloca ptr, align 8
  store ptr %0, ptr %4, align 8, !tbaa !3
  store ptr %1, ptr %5, align 8, !tbaa !3
  store ptr %2, ptr %6, align 8, !tbaa !3
  %7 = load ptr, ptr %5, align 8, !tbaa !3
  %8 = load ptr, ptr %6, align 8, !tbaa !3
  %9 = load ptr, ptr %7, align 8, !tbaa !16
  %10 = getelementptr inbounds ptr, ptr %9, i64 3
  %11 = load ptr, ptr %10, align 8
  call void %11(ptr noundef nonnull align 8 dereferenceable(40) %7, ptr noundef nonnull align 2 dereferenceable(2) %8)
  ret void
}

; Function Attrs: mustprogress uwtable
define linkonce_odr hidden void @_ZN5boost7archive22class_id_optional_typeC2ENS0_13class_id_typeE(ptr noundef nonnull align 2 dereferenceable(2) %0, ptr noundef %1) unnamed_addr #0 comdat align 2 {
  %3 = alloca ptr, align 8
  %4 = alloca ptr, align 8
  store ptr %0, ptr %3, align 8, !tbaa !3
  store ptr %1, ptr %4, align 8, !tbaa !3
  %5 = load ptr, ptr %3, align 8
  call void @_ZN5boost7archive13class_id_typeC2ERKS1_(ptr noundef nonnull align 2 dereferenceable(2) %5, ptr noundef nonnull align 2 dereferenceable(2) %1)
  ret void
}

; Function Attrs: mustprogress nounwind uwtable
define linkonce_odr hidden void @_ZN5boost7archive13class_id_typeC2Ei(ptr noundef nonnull align 2 dereferenceable(2) %0, i32 noundef %1) unnamed_addr #2 comdat align 2 {
  %3 = alloca ptr, align 8
  %4 = alloca i32, align 4
  store ptr %0, ptr %3, align 8, !tbaa !3
  store i32 %1, ptr %4, align 4, !tbaa !42
  %5 = load ptr, ptr %3, align 8
  %6 = getelementptr inbounds nuw %"class.boost::archive::class_id_type", ptr %5, i32 0, i32 0
  %7 = load i32, ptr %4, align 4, !tbaa !42
  %8 = trunc i32 %7 to i16
  store i16 %8, ptr %6, align 2, !tbaa !43
  ret void
}

; Function Attrs: mustprogress uwtable
define hidden void @_ZN5boost7archive6detail19basic_iarchive_impl13load_preambleERNS1_14basic_iarchiveERNS2_10cobject_idE(ptr noundef nonnull align 8 dereferenceable(144) %0, ptr noundef nonnull align 8 dereferenceable(40) %1, ptr noundef nonnull align 8 dereferenceable(22) %2) #0 align 2 {
  %4 = alloca ptr, align 8
  %5 = alloca ptr, align 8
  %6 = alloca ptr, align 8
  %7 = alloca %"class.boost::archive::class_id_optional_type", align 2
  %8 = alloca %"class.boost::archive::class_id_type", align 2
  %9 = alloca %"class.boost::archive::version_type", align 4
  store ptr %0, ptr %4, align 8, !tbaa !3
  store ptr %1, ptr %5, align 8, !tbaa !3
  store ptr %2, ptr %6, align 8, !tbaa !3
  %10 = load ptr, ptr %4, align 8
  %11 = load ptr, ptr %6, align 8, !tbaa !3
  %12 = getelementptr inbounds nuw %"class.boost::archive::detail::basic_iarchive_impl::cobject_id", ptr %11, i32 0, i32 4
  %13 = load i8, ptr %12, align 1, !tbaa !7, !range !13, !noundef !14
  %14 = trunc i8 %13 to i1
  br i1 %14, label %56, label %15

15:                                               ; preds = %3
  %16 = load ptr, ptr %6, align 8, !tbaa !3
  %17 = getelementptr inbounds nuw %"class.boost::archive::detail::basic_iarchive_impl::cobject_id", ptr %16, i32 0, i32 0
  %18 = load ptr, ptr %17, align 8, !tbaa !15
  %19 = load ptr, ptr %18, align 8, !tbaa !16
  %20 = getelementptr inbounds ptr, ptr %19, i64 3
  %21 = load ptr, ptr %20, align 8
  %22 = call noundef zeroext i1 %21(ptr noundef nonnull align 8 dereferenceable(24) %18)
  br i1 %22, label %23, label %31

23:                                               ; preds = %15
  call void @llvm.lifetime.start.p0(i64 2, ptr %7) #16
  call void @_ZN5boost7archive13class_id_typeC2Ei(ptr noundef nonnull align 2 dereferenceable(2) %8, i32 noundef 0)
  call void @_ZN5boost7archive22class_id_optional_typeC2ENS0_13class_id_typeE(ptr noundef nonnull align 2 dereferenceable(2) %7, ptr noundef %8)
  %24 = load ptr, ptr %5, align 8, !tbaa !3
  call void @_ZN5boost7archive6detail19basic_iarchive_impl4loadINS0_22class_id_optional_typeEEEvRNS1_14basic_iarchiveERT_(ptr noundef nonnull align 8 dereferenceable(144) %10, ptr noundef nonnull align 8 dereferenceable(40) %24, ptr noundef nonnull align 2 dereferenceable(2) %7)
  %25 = load ptr, ptr %5, align 8, !tbaa !3
  %26 = load ptr, ptr %6, align 8, !tbaa !3
  %27 = getelementptr inbounds nuw %"class.boost::archive::detail::basic_iarchive_impl::cobject_id", ptr %26, i32 0, i32 3
  call void @_ZN5boost7archive6detail19basic_iarchive_impl4loadINS0_13tracking_typeEEEvRNS1_14basic_iarchiveERT_(ptr noundef nonnull align 8 dereferenceable(144) %10, ptr noundef nonnull align 8 dereferenceable(40) %25, ptr noundef nonnull align 1 dereferenceable(1) %27)
  %28 = load ptr, ptr %5, align 8, !tbaa !3
  %29 = load ptr, ptr %6, align 8, !tbaa !3
  %30 = getelementptr inbounds nuw %"class.boost::archive::detail::basic_iarchive_impl::cobject_id", ptr %29, i32 0, i32 2
  call void @_ZN5boost7archive6detail19basic_iarchive_impl4loadINS0_12version_typeEEEvRNS1_14basic_iarchiveERT_(ptr noundef nonnull align 8 dereferenceable(144) %10, ptr noundef nonnull align 8 dereferenceable(40) %28, ptr noundef nonnull align 4 dereferenceable(4) %30)
  call void @llvm.lifetime.end.p0(i64 2, ptr %7) #16
  br label %53

31:                                               ; preds = %15
  %32 = load ptr, ptr %6, align 8, !tbaa !3
  %33 = getelementptr inbounds nuw %"class.boost::archive::detail::basic_iarchive_impl::cobject_id", ptr %32, i32 0, i32 0
  %34 = load ptr, ptr %33, align 8, !tbaa !15
  %35 = getelementptr inbounds nuw %"class.boost::archive::detail::basic_iarchive_impl", ptr %10, i32 0, i32 1
  %36 = load i32, ptr %35, align 4, !tbaa !18
  %37 = load ptr, ptr %34, align 8, !tbaa !16
  %38 = getelementptr inbounds ptr, ptr %37, i64 4
  %39 = load ptr, ptr %38, align 8
  %40 = call noundef zeroext i1 %39(ptr noundef nonnull align 8 dereferenceable(24) %34, i32 noundef %36)
  %41 = load ptr, ptr %6, align 8, !tbaa !3
  %42 = getelementptr inbounds nuw %"class.boost::archive::detail::basic_iarchive_impl::cobject_id", ptr %41, i32 0, i32 3
  %43 = call noundef nonnull align 1 dereferenceable(1) ptr @_ZN5boost7archive13tracking_typeaSEb(ptr noundef nonnull align 1 dereferenceable(1) %42, i1 noundef zeroext %40)
  call void @llvm.lifetime.start.p0(i64 4, ptr %9) #16
  %44 = load ptr, ptr %6, align 8, !tbaa !3
  %45 = getelementptr inbounds nuw %"class.boost::archive::detail::basic_iarchive_impl::cobject_id", ptr %44, i32 0, i32 0
  %46 = load ptr, ptr %45, align 8, !tbaa !15
  %47 = load ptr, ptr %46, align 8, !tbaa !16
  %48 = getelementptr inbounds ptr, ptr %47, i64 5
  %49 = load ptr, ptr %48, align 8
  call void %49(ptr dead_on_unwind writable sret(%"class.boost::archive::version_type") align 4 %9, ptr noundef nonnull align 8 dereferenceable(24) %46)
  %50 = load ptr, ptr %6, align 8, !tbaa !3
  %51 = getelementptr inbounds nuw %"class.boost::archive::detail::basic_iarchive_impl::cobject_id", ptr %50, i32 0, i32 2
  %52 = call noundef nonnull align 4 dereferenceable(4) ptr @_ZN5boost7archive12version_typeaSERKS1_(ptr noundef nonnull align 4 dereferenceable(4) %51, ptr noundef nonnull align 4 dereferenceable(4) %9)
  call void @llvm.lifetime.end.p0(i64 4, ptr %9) #16
  br label %53

53:                                               ; preds = %31, %23
  %54 = load ptr, ptr %6, align 8, !tbaa !3
  %55 = getelementptr inbounds nuw %"class.boost::archive::detail::basic_iarchive_impl::cobject_id", ptr %54, i32 0, i32 4
  store i8 1, ptr %55, align 1, !tbaa !7
  br label %56

56:                                               ; preds = %53, %3
  ret void
}