; Function Attrs: mustprogress uwtable
define hidden void @_ZN5boost7archive6detail19basic_iarchive_impl13load_preambleERNS1_14basic_iarchiveERNS2_10cobject_idE(ptr nocapture noundef nonnull readonly align 8 dereferenceable(144) %0, ptr noundef nonnull align 8 dereferenceable(40) %1, ptr noundef nonnull align 8 dereferenceable(22) %2) local_unnamed_addr #0 align 2 {
  %4 = alloca %"class.boost::archive::class_id_optional_type", align 2
  %5 = alloca %"class.boost::archive::version_type", align 4
  %6 = getelementptr inbounds nuw i8, ptr %2, i64 21
  %7 = load i8, ptr %6, align 1, !tbaa !3, !range !12, !noundef !13
  %8 = trunc nuw i8 %7 to i1
  br i1 %8, label %43, label %9

9:                                                ; preds = %3
  %10 = load ptr, ptr %2, align 8, !tbaa !14
  %11 = load ptr, ptr %10, align 8, !tbaa !15
  %12 = getelementptr inbounds i8, ptr %11, i64 24
  %13 = load ptr, ptr %12, align 8
  %14 = tail call noundef zeroext i1 %13(ptr noundef nonnull align 8 dereferenceable(24) %10)
  br i1 %14, label %15, label %26

15:                                               ; preds = %9
  call void @llvm.lifetime.start.p0(i64 2, ptr nonnull %4) #23
  store i16 0, ptr %4, align 2, !tbaa !17
  %16 = load ptr, ptr %1, align 8, !tbaa !15
  %17 = getelementptr inbounds i8, ptr %16, i64 24
  %18 = load ptr, ptr %17, align 8
  call void %18(ptr noundef nonnull align 8 dereferenceable(40) %1, ptr noundef nonnull align 2 dereferenceable(2) %4)
  %19 = getelementptr inbounds nuw i8, ptr %2, i64 20
  %20 = load ptr, ptr %1, align 8, !tbaa !15
  %21 = getelementptr inbounds i8, ptr %20, i64 40
  %22 = load ptr, ptr %21, align 8
  call void %22(ptr noundef nonnull align 8 dereferenceable(40) %1, ptr noundef nonnull align 1 dereferenceable(1) %19)
  %23 = getelementptr inbounds nuw i8, ptr %2, i64 16
  %24 = load ptr, ptr %1, align 8, !tbaa !15
  %25 = load ptr, ptr %24, align 8
  call void %25(ptr noundef nonnull align 8 dereferenceable(40) %1, ptr noundef nonnull align 4 dereferenceable(4) %23)
  call void @llvm.lifetime.end.p0(i64 2, ptr nonnull %4) #23
  br label %42

26:                                               ; preds = %9
  %27 = load ptr, ptr %2, align 8, !tbaa !14
  %28 = getelementptr inbounds nuw i8, ptr %0, i64 4
  %29 = load i32, ptr %28, align 4, !tbaa !20
  %30 = load ptr, ptr %27, align 8, !tbaa !15
  %31 = getelementptr inbounds i8, ptr %30, i64 32
  %32 = load ptr, ptr %31, align 8
  %33 = tail call noundef zeroext i1 %32(ptr noundef nonnull align 8 dereferenceable(24) %27, i32 noundef %29)
  %34 = getelementptr inbounds nuw i8, ptr %2, i64 20
  %35 = zext i1 %33 to i8
  store i8 %35, ptr %34, align 4, !tbaa !43
  call void @llvm.lifetime.start.p0(i64 4, ptr nonnull %5) #23
  %36 = load ptr, ptr %2, align 8, !tbaa !14
  %37 = load ptr, ptr %36, align 8, !tbaa !15
  %38 = getelementptr inbounds i8, ptr %37, i64 40
  %39 = load ptr, ptr %38, align 8
  call void %39(ptr dead_on_unwind nonnull writable sret(%"class.boost::archive::version_type") align 4 %5, ptr noundef nonnull align 8 dereferenceable(24) %36)
  %40 = getelementptr inbounds nuw i8, ptr %2, i64 16
  %41 = load i32, ptr %5, align 4, !tbaa !44
  store i32 %41, ptr %40, align 8, !tbaa !44
  call void @llvm.lifetime.end.p0(i64 4, ptr nonnull %5) #23
  br label %42

42:                                               ; preds = %26, %15
  store i8 1, ptr %6, align 1, !tbaa !3
  br label %43

43:                                               ; preds = %42, %3
  ret void
}